Certificate:
    Data:
        Version: 3 (0x2)
        Serial Number: 11 (0xb)
        Signature Algorithm: sha1WithRSAEncryption
        Issuer: C=BA, ST=RS, L=Banja Luka, O=Elektrotehnicki fakultet, OU=ETF, CN=rootCA
        Validity
            Not Before: Apr 15 12:50:41 2022 GMT
            Not After : Apr 15 12:50:41 2023 GMT
        Subject: C=BA, ST=RS, O=Elektrotehnicki fakultet, OU=ETF, CN=CA2
        Subject Public Key Info:
            Public Key Algorithm: rsaEncryption
                RSA Public-Key: (2048 bit)
                Modulus:
                    00:d4:be:79:92:a6:d2:2d:fa:f0:bf:de:d8:71:3c:
                    38:08:a5:27:6f:1c:ce:07:e4:ee:c1:f5:92:7f:ae:
                    cb:ef:61:33:fb:e5:33:da:fa:37:74:58:f1:66:d1:
                    56:8d:96:cc:b8:c0:7c:da:91:c6:1c:11:2b:1c:aa:
                    9a:09:56:0f:d5:d2:07:36:ab:8e:d0:0a:5e:3c:4d:
                    1d:1f:49:84:c6:31:3d:c4:53:c5:be:31:a5:9f:e9:
                    1a:84:48:0c:d8:9c:0d:e2:c2:51:52:7a:ea:f0:7b:
                    61:db:e2:a3:7d:1d:a9:e5:03:92:f9:b2:54:76:25:
                    75:82:41:03:fb:80:cc:52:bc:61:13:15:d1:31:b3:
                    58:05:6e:a9:08:c4:81:ce:c8:38:b1:33:0f:b8:73:
                    ea:e0:df:d8:c8:02:98:3a:82:d6:53:51:9a:3c:bb:
                    31:8b:bb:6f:6d:67:e5:8a:d9:fd:c0:01:4f:ba:be:
                    f1:59:69:b5:d7:f1:bb:e1:68:32:ed:29:94:8e:af:
                    08:58:0f:12:d0:da:31:28:6e:08:de:db:db:55:42:
                    a2:81:f4:cf:a6:b7:49:94:99:1c:ab:aa:ca:3e:03:
                    6f:fe:f0:5c:cd:7e:fd:b2:27:52:66:26:24:1c:0e:
                    10:be:d6:a1:28:99:2c:7e:59:ea:d4:cb:a2:b2:36:
                    1e:83
                Exponent: 65537 (0x10001)
        X509v3 extensions:
            X509v3 Basic Constraints: 
                CA:FALSE
            X509v3 Key Usage: 
                Digital Signature, Non Repudiation, Key Encipherment
            X509v3 Extended Key Usage: 
                TLS Web Client Authentication, TLS Web Server Authentication
            Netscape Comment: 
                OpenSSL Generated Certificate
            X509v3 Subject Key Identifier: 
                A9:D1:0F:45:66:BE:CD:47:51:2B:73:7A:80:79:0E:2C:49:D9:72:9B
            X509v3 Authority Key Identifier: 
                keyid:C1:30:B1:FB:E8:4C:C7:86:B1:54:FA:F9:79:C2:46:54:A2:5A:03:92

            X509v3 CRL Distribution Points: 

                Full Name:
                  URI:http://192.168.21.89/rootcrl.pem

    Signature Algorithm: sha1WithRSAEncryption
         98:fd:6d:30:b7:71:90:c2:59:0c:17:1c:d1:9d:d4:a5:6a:ea:
         03:f7:5a:46:9e:3b:d5:0b:93:00:3b:93:2f:fa:1d:a0:84:f1:
         39:fa:e8:6e:31:f6:76:33:73:aa:8d:56:34:c1:9b:ff:04:69:
         2b:fd:e3:fe:6d:20:fd:3a:5e:92:ab:03:f2:5f:84:65:cc:97:
         09:45:88:04:98:24:a2:84:a2:18:99:ac:b5:e0:1a:85:6f:65:
         28:45:b9:50:85:a6:cc:81:85:8f:c5:5f:20:c6:af:5b:b0:72:
         7c:4e:a6:bc:05:de:f6:04:1f:d3:2d:d1:96:6a:20:fd:5f:c4:
         5c:88:a1:c7:5a:ee:0b:d8:0f:d7:b6:59:e9:fe:43:bd:b2:fa:
         96:01:7c:01:a0:7c:c4:30:ae:db:d7:4f:d6:52:cf:2c:37:09:
         58:21:73:5d:aa:6a:5e:31:54:65:18:7b:28:12:bd:4a:86:d0:
         5c:be:53:56:9a:b3:7d:66:a4:c3:76:22:85:6e:10:07:36:73:
         a5:6c:e2:c6:e6:0c:2f:87:c3:73:25:70:93:a5:6a:9b:14:98:
         ab:06:28:eb:72:5d:dc:5e:bd:08:57:87:58:ac:ad:61:01:d7:
         60:31:38:19:e5:4b:fe:f9:67:11:f6:fd:0c:53:35:e4:8f:ed:
         46:ce:9f:03
-----BEGIN CERTIFICATE-----
MIIEITCCAwmgAwIBAgIBCzANBgkqhkiG9w0BAQUFADBxMQswCQYDVQQGEwJCQTEL
MAkGA1UECBMCUlMxEzARBgNVBAcTCkJhbmphIEx1a2ExITAfBgNVBAoTGEVsZWt0
cm90ZWhuaWNraSBmYWt1bHRldDEMMAoGA1UECxMDRVRGMQ8wDQYDVQQDEwZyb290
Q0EwHhcNMjIwNDE1MTI1MDQxWhcNMjMwNDE1MTI1MDQxWjBZMQswCQYDVQQGEwJC
QTELMAkGA1UECBMCUlMxITAfBgNVBAoTGEVsZWt0cm90ZWhuaWNraSBmYWt1bHRl
dDEMMAoGA1UECxMDRVRGMQwwCgYDVQQDEwNDQTIwggEiMA0GCSqGSIb3DQEBAQUA
A4IBDwAwggEKAoIBAQDUvnmSptIt+vC/3thxPDgIpSdvHM4H5O7B9ZJ/rsvvYTP7
5TPa+jd0WPFm0VaNlsy4wHzakcYcESscqpoJVg/V0gc2q47QCl48TR0fSYTGMT3E
U8W+MaWf6RqESAzYnA3iwlFSeurwe2Hb4qN9HanlA5L5slR2JXWCQQP7gMxSvGET
FdExs1gFbqkIxIHOyDixMw+4c+rg39jIApg6gtZTUZo8uzGLu29tZ+WK2f3AAU+6
vvFZabXX8bvhaDLtKZSOrwhYDxLQ2jEobgje29tVQqKB9M+mt0mUmRyrqso+A2/+
8FzNfv2yJ1JmJiQcDhC+1qEomSx+WerUy6KyNh6DAgMBAAGjgdswgdgwCQYDVR0T
BAIwADALBgNVHQ8EBAMCBeAwHQYDVR0lBBYwFAYIKwYBBQUHAwIGCCsGAQUFBwMB
MCwGCWCGSAGG+EIBDQQfFh1PcGVuU1NMIEdlbmVyYXRlZCBDZXJ0aWZpY2F0ZTAd
BgNVHQ4EFgQUqdEPRWa+zUdRK3N6gHkOLEnZcpswHwYDVR0jBBgwFoAUwTCx++hM
x4axVPr5ecJGVKJaA5IwMQYDVR0fBCowKDAmoCSgIoYgaHR0cDovLzE5Mi4xNjgu
MjEuODkvcm9vdGNybC5wZW0wDQYJKoZIhvcNAQEFBQADggEBAJj9bTC3cZDCWQwX
HNGd1KVq6gP3WkaeO9ULkwA7ky/6HaCE8Tn66G4x9nYzc6qNVjTBm/8EaSv94/5t
IP06XpKrA/JfhGXMlwlFiASYJKKEohiZrLXgGoVvZShFuVCFpsyBhY/FXyDGr1uw
cnxOprwF3vYEH9Mt0ZZqIP1fxFyIocda7gvYD9e2Wen+Q72y+pYBfAGgfMQwrtvX
T9ZSzyw3CVghc12qal4xVGUYeygSvUqG0Fy+U1aas31mpMN2IoVuEAc2c6Vs4sbm
DC+Hw3MlcJOlapsUmKsGKOtyXdxevQhXh1isrWEB12AxOBnlS/75ZxH2/QxTNeSP
7UbOnwM=
-----END CERTIFICATE-----
